target datalayout = "e-m:e-p270:32:32-p271:32:32-p272:64:64-i64:64-i128:128-f80:128-n8:16:32:64-S128"
target triple = "x86_64-pc-linux-gnu"

%struct.bitmap = type { ptr, i64 }

; Function Attrs: nounwind uwtable
define dso_local i32 @bitmap_get(ptr noundef %0, i64 noundef %1) #0 {
  %3 = alloca ptr, align 8
  %4 = alloca i64, align 8
  %5 = alloca i64, align 8
  store ptr %0, ptr %3, align 8, !tbaa !8
  store i64 %1, ptr %4, align 8, !tbaa !4
  call void @llvm.lifetime.start.p0(i64 8, ptr %5) #8
  %6 = load i64, ptr %4, align 8, !tbaa !4
  %7 = udiv i64 %6, 64
  store i64 %7, ptr %5, align 8, !tbaa !4
  %8 = load i64, ptr %5, align 8, !tbaa !4
  %9 = load ptr, ptr %3, align 8, !tbaa !8
  %10 = getelementptr inbounds nuw %struct.bitmap, ptr %9, i32 0, i32 1
  %11 = load i64, ptr %10, align 8, !tbaa !14
  %12 = icmp ult i64 %8, %11
  br i1 %12, label %13, label %25

13:                                               ; preds = %2
  %14 = load ptr, ptr %3, align 8, !tbaa !8
  %15 = getelementptr inbounds nuw %struct.bitmap, ptr %14, i32 0, i32 0
  %16 = load ptr, ptr %15, align 8, !tbaa !11
  %17 = load i64, ptr %5, align 8, !tbaa !4
  %18 = getelementptr inbounds nuw i64, ptr %16, i64 %17
  %19 = load i64, ptr %18, align 8, !tbaa !4
  %20 = load i64, ptr %4, align 8, !tbaa !4
  %21 = urem i64 %20, 64
  %22 = shl i64 1, %21
  %23 = and i64 %19, %22
  %24 = icmp ne i64 %23, 0
  br label %25

25:                                               ; preds = %13, %2
  %26 = phi i1 [ false, %2 ], [ %24, %13 ]
  %27 = zext i1 %26 to i32
  call void @llvm.lifetime.end.p0(i64 8, ptr %5) #8
  ret i32 %27
}