; Function Attrs: mustprogress nofree norecurse nosync nounwind willreturn memory(read, inaccessiblemem: none) uwtable
define dso_local range(i32 0, 2) i32 @bitmap_get(ptr noundef readonly captures(none) %0, i64 noundef %1) local_unnamed_addr #4 {
  %3 = lshr i64 %1, 6
  %4 = getelementptr inbounds nuw i8, ptr %0, i64 8
  %5 = load i64, ptr %4, align 8, !tbaa !11
  %6 = icmp ult i64 %3, %5
  br i1 %6, label %7, label %15

7:                                                ; preds = %2
  %8 = load ptr, ptr %0, align 8, !tbaa !4
  %9 = getelementptr inbounds nuw i64, ptr %8, i64 %3
  %10 = load i64, ptr %9, align 8, !tbaa !12
  %11 = and i64 %1, 63
  %12 = lshr i64 %10, %11
  %13 = trunc i64 %12 to i32
  %14 = and i32 %13, 1
  br label %15

15:                                               ; preds = %7, %2
  %16 = phi i32 [ 0, %2 ], [ %14, %7 ]
  ret i32 %16
}